target datalayout = "e-m:e-p270:32:32-p271:32:32-p272:64:64-i64:64-i128:128-f80:128-n8:16:32:64-S128"
target triple = "x86_64-pc-linux-gnu"

%struct.SDL_AtomicInt = type { i32 }
%struct.SDL_EventWatchList = type { ptr, %struct.SDL_EventWatcher, ptr, i32, i8, i8 }
%struct.SDL_EventWatcher = type { ptr, ptr, i8 }
%struct.anon = type { ptr, i8, %struct.SDL_AtomicInt, i32, ptr, ptr, ptr }

@SDL_event_watchers = internal global %struct.SDL_EventWatchList zeroinitializer, align 8
@SDL_main_callbacks_lock = internal global ptr null, align 8
@.str.166 = private unnamed_addr constant [26 x i8] c"SDL_AUTO_UPDATE_JOYSTICKS\00", align 1
@.str.167 = private unnamed_addr constant [24 x i8] c"SDL_AUTO_UPDATE_SENSORS\00", align 1
@.str.168 = private unnamed_addr constant [18 x i8] c"SDL_EVENT_LOGGING\00", align 1
@.str.169 = private unnamed_addr constant [18 x i8] c"SDL_POLL_SENTINEL\00", align 1
@SDL_EventQ = internal global { ptr, i8, [3 x i8], %struct.SDL_AtomicInt, i32, [4 x i8], ptr, ptr, ptr } zeroinitializer, align 8

; Function Attrs: nounwind uwtable
define hidden zeroext i1 @SDL_StartEventLoop() #0 {
  %1 = alloca i1, align 1
  %2 = load ptr, ptr @SDL_EventQ, align 8
  %3 = icmp ne ptr %2, null
  br i1 %3, label %10, label %4

4:                                                ; preds = %0
  %5 = call ptr @SDL_CreateMutex_REAL()
  store ptr %5, ptr @SDL_EventQ, align 8
  %6 = load ptr, ptr @SDL_EventQ, align 8
  %7 = icmp eq ptr %6, null
  br i1 %7, label %8, label %9

8:                                                ; preds = %4
  store i1 false, ptr %1, align 1
  br label %17

9:                                                ; preds = %4
  br label %10

10:                                               ; preds = %9, %0
  %11 = load ptr, ptr @SDL_EventQ, align 8
  call void @SDL_LockMutex_REAL(ptr noundef %11)
  %12 = call zeroext i1 @SDL_InitEventWatchList(ptr noundef @SDL_event_watchers)
  br i1 %12, label %15, label %13

13:                                               ; preds = %10
  %14 = load ptr, ptr @SDL_EventQ, align 8
  call void @SDL_UnlockMutex_REAL(ptr noundef %14)
  store i1 false, ptr %1, align 1
  br label %17

15:                                               ; preds = %10
  call void @SDL_InitWindowEventWatch()
  store i8 1, ptr getelementptr inbounds nuw (%struct.anon, ptr @SDL_EventQ, i32 0, i32 1), align 8
  %16 = load ptr, ptr @SDL_EventQ, align 8
  call void @SDL_UnlockMutex_REAL(ptr noundef %16)
  store i1 true, ptr %1, align 1
  br label %17

17:                                               ; preds = %15, %13, %8
  %18 = load i1, ptr %1, align 1
  ret i1 %18
}

; Function Attrs: nounwind uwtable
define internal void @SDL_InitMainThreadCallbacks() #0 {
  %1 = call ptr @SDL_CreateMutex_REAL()
  store ptr %1, ptr @SDL_main_callbacks_lock, align 8
  br label %2

2:                                                ; preds = %0
  br label %3

3:                                                ; preds = %2
  ret void
}

; Function Attrs: nounwind uwtable
define hidden zeroext i1 @SDL_InitEvents() #0 {
  %1 = alloca i1, align 1
  %2 = call zeroext i1 @SDL_AddHintCallback_REAL(ptr noundef @.str.166, ptr noundef @SDL_AutoUpdateJoysticksChanged, ptr noundef null)
  %3 = call zeroext i1 @SDL_AddHintCallback_REAL(ptr noundef @.str.167, ptr noundef @SDL_AutoUpdateSensorsChanged, ptr noundef null)
  %4 = call zeroext i1 @SDL_AddHintCallback_REAL(ptr noundef @.str.168, ptr noundef @SDL_EventLoggingChanged, ptr noundef null)
  %5 = call zeroext i1 @SDL_AddHintCallback_REAL(ptr noundef @.str.169, ptr noundef @SDL_PollSentinelChanged, ptr noundef null)
  call void @SDL_InitMainThreadCallbacks()
  %6 = call zeroext i1 @SDL_StartEventLoop()
  br i1 %6, label %8, label %7

7:                                                ; preds = %0
  call void @SDL_RemoveHintCallback_REAL(ptr noundef @.str.168, ptr noundef @SDL_EventLoggingChanged, ptr noundef null)
  store i1 false, ptr %1, align 1
  br label %10

8:                                                ; preds = %0
  %9 = call zeroext i1 @SDL_InitQuit()
  store i1 true, ptr %1, align 1
  br label %10

10:                                               ; preds = %8, %7
  %11 = load i1, ptr %1, align 1
  ret i1 %11
}