; Function Attrs: nounwind uwtable
define hidden noundef zeroext i1 @SDL_InitEvents() local_unnamed_addr #0 {
  %1 = tail call zeroext i1 @SDL_AddHintCallback_REAL(ptr noundef nonnull @.str.166, ptr noundef nonnull @SDL_AutoUpdateJoysticksChanged, ptr noundef null) #8
  %2 = tail call zeroext i1 @SDL_AddHintCallback_REAL(ptr noundef nonnull @.str.167, ptr noundef nonnull @SDL_AutoUpdateSensorsChanged, ptr noundef null) #8
  %3 = tail call zeroext i1 @SDL_AddHintCallback_REAL(ptr noundef nonnull @.str.168, ptr noundef nonnull @SDL_EventLoggingChanged, ptr noundef null) #8
  %4 = tail call zeroext i1 @SDL_AddHintCallback_REAL(ptr noundef nonnull @.str.169, ptr noundef nonnull @SDL_PollSentinelChanged, ptr noundef null) #8
  %5 = tail call ptr @SDL_CreateMutex_REAL() #8
  store ptr %5, ptr @SDL_main_callbacks_lock, align 8
  %6 = load ptr, ptr @SDL_EventQ, align 8
  %.not.i = icmp eq ptr %6, null
  br i1 %.not.i, label %7, label %10

7:                                                ; preds = %0
  %8 = tail call ptr @SDL_CreateMutex_REAL() #8
  store ptr %8, ptr @SDL_EventQ, align 8
  %9 = icmp eq ptr %8, null
  br i1 %9, label %SDL_StartEventLoop.exit.thread, label %10

10:                                               ; preds = %7, %0
  %11 = phi ptr [ %8, %7 ], [ %6, %0 ]
  tail call void @SDL_LockMutex_REAL(ptr noundef nonnull %11) #8
  %12 = tail call zeroext i1 @SDL_InitEventWatchList(ptr noundef nonnull @SDL_event_watchers) #8
  br i1 %12, label %14, label %SDL_StartEventLoop.exit

SDL_StartEventLoop.exit:                          ; preds = %10
  %13 = load ptr, ptr @SDL_EventQ, align 8
  tail call void @SDL_UnlockMutex_REAL(ptr noundef %13) #8
  br label %SDL_StartEventLoop.exit.thread

SDL_StartEventLoop.exit.thread:                   ; preds = %7, %SDL_StartEventLoop.exit
  tail call void @SDL_RemoveHintCallback_REAL(ptr noundef nonnull @.str.168, ptr noundef nonnull @SDL_EventLoggingChanged, ptr noundef null) #8
  br label %17

14:                                               ; preds = %10
  tail call void @SDL_InitWindowEventWatch() #8
  store i8 1, ptr getelementptr inbounds nuw (i8, ptr @SDL_EventQ, i64 8), align 8
  %15 = load ptr, ptr @SDL_EventQ, align 8
  tail call void @SDL_UnlockMutex_REAL(ptr noundef %15) #8
  %16 = tail call zeroext i1 @SDL_InitQuit() #8
  br label %17

17:                                               ; preds = %14, %SDL_StartEventLoop.exit.thread
  %.0.i2 = phi i1 [ true, %14 ], [ false, %SDL_StartEventLoop.exit.thread ]
  ret i1 %.0.i2
}